target datalayout = "e-m:e-p270:32:32-p271:32:32-p272:64:64-i64:64-i128:128-f80:128-n8:16:32:64-S128"
target triple = "x86_64-pc-linux-gnu"

%struct.PJconsts = type { ptr, ptr, ptr, ptr, ptr, ptr, ptr, ptr, ptr, ptr, ptr, ptr, i32, ptr, ptr, ptr, ptr, ptr, ptr, ptr, ptr, double, double, double, double, double, double, double, double, double, double, double, double, double, double, double, double, double, double, double, double, double, double, i32, i32, i32, i32, i32, i32, i32, i32, i32, i32, i32, ptr, ptr, ptr, ptr, ptr, ptr, double, double, double, double, double, double, double, double, double, double, double, i32, [7 x double], i32, ptr, ptr, double, double, i32, [4 x i8], %"class.std::shared_ptr", i8, double, i8, %"class.std::__cxx11::basic_string", %"class.std::__cxx11::basic_string", %"class.std::__cxx11::basic_string", i8, %"class.std::vector", i32, %"class.std::vector.3", i32, i8, i8, i8, ptr }
%"class.std::shared_ptr" = type { %"class.std::__shared_ptr" }
%"class.std::__shared_ptr" = type { ptr, %"class.std::__shared_count" }
%"class.std::__shared_count" = type { ptr }
%"class.std::__cxx11::basic_string" = type { %"struct.std::__cxx11::basic_string<char>::_Alloc_hider", i64, %union.anon }
%"struct.std::__cxx11::basic_string<char>::_Alloc_hider" = type { ptr }
%union.anon = type { i64, [8 x i8] }
%"class.std::vector" = type { %"struct.std::_Vector_base" }
%"struct.std::_Vector_base" = type { %"struct.std::_Vector_base<osgeo::proj::operation::GridDescription, std::allocator<osgeo::proj::operation::GridDescription>>::_Vector_impl" }
%"struct.std::_Vector_base<osgeo::proj::operation::GridDescription, std::allocator<osgeo::proj::operation::GridDescription>>::_Vector_impl" = type { %"struct.std::_Vector_base<osgeo::proj::operation::GridDescription, std::allocator<osgeo::proj::operation::GridDescription>>::_Vector_impl_data" }
%"struct.std::_Vector_base<osgeo::proj::operation::GridDescription, std::allocator<osgeo::proj::operation::GridDescription>>::_Vector_impl_data" = type { ptr, ptr, ptr }
%"class.std::vector.3" = type { %"struct.std::_Vector_base.4" }
%"struct.std::_Vector_base.4" = type { %"struct.std::_Vector_base<PJCoordOperation, std::allocator<PJCoordOperation>>::_Vector_impl" }
%"struct.std::_Vector_base<PJCoordOperation, std::allocator<PJCoordOperation>>::_Vector_impl" = type { %"struct.std::_Vector_base<PJCoordOperation, std::allocator<PJCoordOperation>>::_Vector_impl_data" }
%"struct.std::_Vector_base<PJCoordOperation, std::allocator<PJCoordOperation>>::_Vector_impl_data" = type { ptr, ptr, ptr }
%"struct.pj_imoll_o_ns::pj_imoll_o_data" = type { [6 x ptr], double, double, double, double }
%struct.PJ_LP = type { double, double }
%struct.PJ_XY = type { double, double }

; Function Attrs: mustprogress uwtable
define internal noundef double @_ZL30pj_imoll_o_compute_zone_offsetPN13pj_imoll_o_ns15pj_imoll_o_dataEiiddd(ptr noundef %0, i32 noundef %1, i32 noundef %2, double noundef %3, double noundef %4, double noundef %5) #0 {
  %7 = alloca ptr, align 8
  %8 = alloca i32, align 4
  %9 = alloca i32, align 4
  %10 = alloca double, align 8
  %11 = alloca double, align 8
  %12 = alloca double, align 8
  %13 = alloca %struct.PJ_LP, align 8
  %14 = alloca %struct.PJ_LP, align 8
  %15 = alloca %struct.PJ_XY, align 8
  %16 = alloca %struct.PJ_XY, align 8
  %17 = alloca %struct.PJ_XY, align 8
  %18 = alloca %struct.PJ_LP, align 8
  %19 = alloca %struct.PJ_XY, align 8
  %20 = alloca %struct.PJ_LP, align 8
  store ptr %0, ptr %7, align 8, !tbaa !41
  store i32 %1, ptr %8, align 4, !tbaa !54
  store i32 %2, ptr %9, align 4, !tbaa !54
  store double %3, ptr %10, align 8, !tbaa !56
  store double %4, ptr %11, align 8, !tbaa !56
  store double %5, ptr %12, align 8, !tbaa !56
  call void @llvm.lifetime.start.p0(i64 16, ptr %13) #7
  call void @llvm.lifetime.start.p0(i64 16, ptr %14) #7
  call void @llvm.lifetime.start.p0(i64 16, ptr %15) #7
  call void @llvm.lifetime.start.p0(i64 16, ptr %16) #7
  %21 = load double, ptr %10, align 8, !tbaa !56
  %22 = load ptr, ptr %7, align 8, !tbaa !41
  %23 = getelementptr inbounds nuw %"struct.pj_imoll_o_ns::pj_imoll_o_data", ptr %22, i32 0, i32 0
  %24 = load i32, ptr %8, align 4, !tbaa !54
  %25 = sub nsw i32 %24, 1
  %26 = sext i32 %25 to i64
  %27 = getelementptr inbounds [6 x ptr], ptr %23, i64 0, i64 %26
  %28 = load ptr, ptr %27, align 8, !tbaa !3
  %29 = getelementptr inbounds nuw %struct.PJconsts, ptr %28, i32 0, i32 60
  %30 = load double, ptr %29, align 8, !tbaa !59
  %31 = fsub double %21, %30
  %32 = getelementptr inbounds nuw %struct.PJ_LP, ptr %13, i32 0, i32 0
  store double %31, ptr %32, align 8, !tbaa !62
  %33 = load double, ptr %11, align 8, !tbaa !56
  %34 = getelementptr inbounds nuw %struct.PJ_LP, ptr %13, i32 0, i32 1
  store double %33, ptr %34, align 8, !tbaa !64
  %35 = load double, ptr %10, align 8, !tbaa !56
  %36 = load ptr, ptr %7, align 8, !tbaa !41
  %37 = getelementptr inbounds nuw %"struct.pj_imoll_o_ns::pj_imoll_o_data", ptr %36, i32 0, i32 0
  %38 = load i32, ptr %9, align 4, !tbaa !54
  %39 = sub nsw i32 %38, 1
  %40 = sext i32 %39 to i64
  %41 = getelementptr inbounds [6 x ptr], ptr %37, i64 0, i64 %40
  %42 = load ptr, ptr %41, align 8, !tbaa !3
  %43 = getelementptr inbounds nuw %struct.PJconsts, ptr %42, i32 0, i32 60
  %44 = load double, ptr %43, align 8, !tbaa !59
  %45 = fsub double %35, %44
  %46 = getelementptr inbounds nuw %struct.PJ_LP, ptr %14, i32 0, i32 0
  store double %45, ptr %46, align 8, !tbaa !62
  %47 = load double, ptr %12, align 8, !tbaa !56
  %48 = getelementptr inbounds nuw %struct.PJ_LP, ptr %14, i32 0, i32 1
  store double %47, ptr %48, align 8, !tbaa !64
  call void @llvm.lifetime.start.p0(i64 16, ptr %17) #7
  %49 = load ptr, ptr %7, align 8, !tbaa !41
  %50 = getelementptr inbounds nuw %"struct.pj_imoll_o_ns::pj_imoll_o_data", ptr %49, i32 0, i32 0
  %51 = load i32, ptr %8, align 4, !tbaa !54
  %52 = sub nsw i32 %51, 1
  %53 = sext i32 %52 to i64
  %54 = getelementptr inbounds [6 x ptr], ptr %50, i64 0, i64 %53
  %55 = load ptr, ptr %54, align 8, !tbaa !3
  %56 = getelementptr inbounds nuw %struct.PJconsts, ptr %55, i32 0, i32 13
  %57 = load ptr, ptr %56, align 8, !tbaa !51
  call void @llvm.memcpy.p0.p0.i64(ptr align 8 %18, ptr align 8 %13, i64 16, i1 false), !tbaa.struct !65
  %58 = load ptr, ptr %7, align 8, !tbaa !41
  %59 = getelementptr inbounds nuw %"struct.pj_imoll_o_ns::pj_imoll_o_data", ptr %58, i32 0, i32 0
  %60 = load i32, ptr %8, align 4, !tbaa !54
  %61 = sub nsw i32 %60, 1
  %62 = sext i32 %61 to i64
  %63 = getelementptr inbounds [6 x ptr], ptr %59, i64 0, i64 %62
  %64 = load ptr, ptr %63, align 8, !tbaa !3
  %65 = getelementptr inbounds nuw { double, double }, ptr %18, i32 0, i32 0
  %66 = load double, ptr %65, align 8
  %67 = getelementptr inbounds nuw { double, double }, ptr %18, i32 0, i32 1
  %68 = load double, ptr %67, align 8
  %69 = call { double, double } %57(double %66, double %68, ptr noundef %64)
  %70 = getelementptr inbounds nuw { double, double }, ptr %17, i32 0, i32 0
  %71 = extractvalue { double, double } %69, 0
  store double %71, ptr %70, align 8
  %72 = getelementptr inbounds nuw { double, double }, ptr %17, i32 0, i32 1
  %73 = extractvalue { double, double } %69, 1
  store double %73, ptr %72, align 8
  call void @llvm.memcpy.p0.p0.i64(ptr align 8 %15, ptr align 8 %17, i64 16, i1 false), !tbaa.struct !65
  call void @llvm.lifetime.end.p0(i64 16, ptr %17) #7
  call void @llvm.lifetime.start.p0(i64 16, ptr %19) #7
  %74 = load ptr, ptr %7, align 8, !tbaa !41
  %75 = getelementptr inbounds nuw %"struct.pj_imoll_o_ns::pj_imoll_o_data", ptr %74, i32 0, i32 0
  %76 = load i32, ptr %9, align 4, !tbaa !54
  %77 = sub nsw i32 %76, 1
  %78 = sext i32 %77 to i64
  %79 = getelementptr inbounds [6 x ptr], ptr %75, i64 0, i64 %78
  %80 = load ptr, ptr %79, align 8, !tbaa !3
  %81 = getelementptr inbounds nuw %struct.PJconsts, ptr %80, i32 0, i32 13
  %82 = load ptr, ptr %81, align 8, !tbaa !51
  call void @llvm.memcpy.p0.p0.i64(ptr align 8 %20, ptr align 8 %14, i64 16, i1 false), !tbaa.struct !65
  %83 = load ptr, ptr %7, align 8, !tbaa !41
  %84 = getelementptr inbounds nuw %"struct.pj_imoll_o_ns::pj_imoll_o_data", ptr %83, i32 0, i32 0
  %85 = load i32, ptr %9, align 4, !tbaa !54
  %86 = sub nsw i32 %85, 1
  %87 = sext i32 %86 to i64
  %88 = getelementptr inbounds [6 x ptr], ptr %84, i64 0, i64 %87
  %89 = load ptr, ptr %88, align 8, !tbaa !3
  %90 = getelementptr inbounds nuw { double, double }, ptr %20, i32 0, i32 0
  %91 = load double, ptr %90, align 8
  %92 = getelementptr inbounds nuw { double, double }, ptr %20, i32 0, i32 1
  %93 = load double, ptr %92, align 8
  %94 = call { double, double } %82(double %91, double %93, ptr noundef %89)
  %95 = getelementptr inbounds nuw { double, double }, ptr %19, i32 0, i32 0
  %96 = extractvalue { double, double } %94, 0
  store double %96, ptr %95, align 8
  %97 = getelementptr inbounds nuw { double, double }, ptr %19, i32 0, i32 1
  %98 = extractvalue { double, double } %94, 1
  store double %98, ptr %97, align 8
  call void @llvm.memcpy.p0.p0.i64(ptr align 8 %16, ptr align 8 %19, i64 16, i1 false), !tbaa.struct !65
  call void @llvm.lifetime.end.p0(i64 16, ptr %19) #7
  %99 = getelementptr inbounds nuw %struct.PJ_XY, ptr %16, i32 0, i32 0
  %100 = load double, ptr %99, align 8, !tbaa !66
  %101 = load ptr, ptr %7, align 8, !tbaa !41
  %102 = getelementptr inbounds nuw %"struct.pj_imoll_o_ns::pj_imoll_o_data", ptr %101, i32 0, i32 0
  %103 = load i32, ptr %9, align 4, !tbaa !54
  %104 = sub nsw i32 %103, 1
  %105 = sext i32 %104 to i64
  %106 = getelementptr inbounds [6 x ptr], ptr %102, i64 0, i64 %105
  %107 = load ptr, ptr %106, align 8, !tbaa !3
  %108 = getelementptr inbounds nuw %struct.PJconsts, ptr %107, i32 0, i32 62
  %109 = load double, ptr %108, align 8, !tbaa !44
  %110 = fadd double %100, %109
  %111 = getelementptr inbounds nuw %struct.PJ_XY, ptr %15, i32 0, i32 0
  %112 = load double, ptr %111, align 8, !tbaa !66
  %113 = load ptr, ptr %7, align 8, !tbaa !41
  %114 = getelementptr inbounds nuw %"struct.pj_imoll_o_ns::pj_imoll_o_data", ptr %113, i32 0, i32 0
  %115 = load i32, ptr %8, align 4, !tbaa !54
  %116 = sub nsw i32 %115, 1
  %117 = sext i32 %116 to i64
  %118 = getelementptr inbounds [6 x ptr], ptr %114, i64 0, i64 %117
  %119 = load ptr, ptr %118, align 8, !tbaa !3
  %120 = getelementptr inbounds nuw %struct.PJconsts, ptr %119, i32 0, i32 62
  %121 = load double, ptr %120, align 8, !tbaa !44
  %122 = fadd double %112, %121
  %123 = fsub double %110, %122
  call void @llvm.lifetime.end.p0(i64 16, ptr %16) #7
  call void @llvm.lifetime.end.p0(i64 16, ptr %15) #7
  call void @llvm.lifetime.end.p0(i64 16, ptr %14) #7
  call void @llvm.lifetime.end.p0(i64 16, ptr %13) #7
  ret double %123
}